target datalayout = "e-m:e-p270:32:32-p271:32:32-p272:64:64-i64:64-i128:128-f80:128-n8:16:32:64-S128"
target triple = "x86_64-pc-linux-gnu"

; Function Attrs: alwaysinline nounwind willreturn memory(none) uwtable
define internal i32 @av_clip_uintp2_c(i32 noundef %0, i32 noundef %1) #6 {
  %3 = alloca i32, align 4
  %4 = alloca i32, align 4
  %5 = alloca i32, align 4
  store i32 %0, ptr %4, align 4, !tbaa !30
  store i32 %1, ptr %5, align 4, !tbaa !30
  %6 = load i32, ptr %4, align 4, !tbaa !30
  %7 = load i32, ptr %5, align 4, !tbaa !30
  %8 = shl i32 1, %7
  %9 = sub i32 %8, 1
  %10 = xor i32 %9, -1
  %11 = and i32 %6, %10
  %12 = icmp ne i32 %11, 0
  br i1 %12, label %13, label %21

13:                                               ; preds = %2
  %14 = load i32, ptr %4, align 4, !tbaa !30
  %15 = xor i32 %14, -1
  %16 = ashr i32 %15, 31
  %17 = load i32, ptr %5, align 4, !tbaa !30
  %18 = shl i32 1, %17
  %19 = sub i32 %18, 1
  %20 = and i32 %16, %19
  store i32 %20, ptr %3, align 4
  br label %23

21:                                               ; preds = %2
  %22 = load i32, ptr %4, align 4, !tbaa !30
  store i32 %22, ptr %3, align 4
  br label %23

23:                                               ; preds = %21, %13
  %24 = load i32, ptr %3, align 4
  ret i32 %24
}

; Function Attrs: alwaysinline nounwind uwtable
define internal void @yuv2v30_X_c_template(ptr noundef %0, ptr noundef %1, ptr noundef %2, i32 noundef %3, ptr noundef %4, ptr noundef %5, ptr noundef %6, i32 noundef %7, ptr noundef %8, ptr noundef %9, i32 noundef %10, i32 noundef %11, i32 noundef %12) #3 {
  %14 = alloca ptr, align 8
  %15 = alloca ptr, align 8
  %16 = alloca ptr, align 8
  %17 = alloca i32, align 4
  %18 = alloca ptr, align 8
  %19 = alloca ptr, align 8
  %20 = alloca ptr, align 8
  %21 = alloca i32, align 4
  %22 = alloca ptr, align 8
  %23 = alloca ptr, align 8
  %24 = alloca i32, align 4
  %25 = alloca i32, align 4
  %26 = alloca i32, align 4
  %27 = alloca i32, align 4
  %28 = alloca i32, align 4
  %29 = alloca i32, align 4
  %30 = alloca i32, align 4
  %31 = alloca i32, align 4
  %32 = alloca i32, align 4
  store ptr %0, ptr %14, align 8, !tbaa !4
  store ptr %1, ptr %15, align 8, !tbaa !45
  store ptr %2, ptr %16, align 8, !tbaa !47
  store i32 %3, ptr %17, align 4, !tbaa !30
  store ptr %4, ptr %18, align 8, !tbaa !45
  store ptr %5, ptr %19, align 8, !tbaa !47
  store ptr %6, ptr %20, align 8, !tbaa !47
  store i32 %7, ptr %21, align 4, !tbaa !30
  store ptr %8, ptr %22, align 8, !tbaa !47
  store ptr %9, ptr %23, align 8, !tbaa !46
  store i32 %10, ptr %24, align 4, !tbaa !30
  store i32 %11, ptr %25, align 4, !tbaa !30
  store i32 %12, ptr %26, align 4, !tbaa !30
  call void @llvm.lifetime.start.p0(i64 4, ptr %27) #8
  store i32 0, ptr %27, align 4, !tbaa !30
  br label %33

33:                                               ; preds = %147, %13
  %34 = load i32, ptr %27, align 4, !tbaa !30
  %35 = load i32, ptr %24, align 4, !tbaa !30
  %36 = icmp slt i32 %34, %35
  br i1 %36, label %37, label %150

37:                                               ; preds = %33
  call void @llvm.lifetime.start.p0(i64 4, ptr %28) #8
  store i32 65536, ptr %28, align 4, !tbaa !30
  call void @llvm.lifetime.start.p0(i64 4, ptr %29) #8
  store i32 65536, ptr %29, align 4, !tbaa !30
  call void @llvm.lifetime.start.p0(i64 4, ptr %30) #8
  store i32 65536, ptr %30, align 4, !tbaa !30
  call void @llvm.lifetime.start.p0(i64 4, ptr %31) #8
  store i32 3, ptr %31, align 4, !tbaa !30
  call void @llvm.lifetime.start.p0(i64 4, ptr %32) #8
  store i32 0, ptr %32, align 4, !tbaa !30
  br label %38

38:                                               ; preds = %62, %37
  %39 = load i32, ptr %32, align 4, !tbaa !30
  %40 = load i32, ptr %17, align 4, !tbaa !30
  %41 = icmp slt i32 %39, %40
  br i1 %41, label %42, label %65

42:                                               ; preds = %38
  %43 = load ptr, ptr %16, align 8, !tbaa !47
  %44 = load i32, ptr %32, align 4, !tbaa !30
  %45 = sext i32 %44 to i64
  %46 = getelementptr inbounds ptr, ptr %43, i64 %45
  %47 = load ptr, ptr %46, align 8, !tbaa !45
  %48 = load i32, ptr %27, align 4, !tbaa !30
  %49 = sext i32 %48 to i64
  %50 = getelementptr inbounds i16, ptr %47, i64 %49
  %51 = load i16, ptr %50, align 2, !tbaa !49
  %52 = sext i16 %51 to i32
  %53 = load ptr, ptr %15, align 8, !tbaa !45
  %54 = load i32, ptr %32, align 4, !tbaa !30
  %55 = sext i32 %54 to i64
  %56 = getelementptr inbounds i16, ptr %53, i64 %55
  %57 = load i16, ptr %56, align 2, !tbaa !49
  %58 = sext i16 %57 to i32
  %59 = mul nsw i32 %52, %58
  %60 = load i32, ptr %28, align 4, !tbaa !30
  %61 = add nsw i32 %60, %59
  store i32 %61, ptr %28, align 4, !tbaa !30
  br label %62

62:                                               ; preds = %42
  %63 = load i32, ptr %32, align 4, !tbaa !30
  %64 = add nsw i32 %63, 1
  store i32 %64, ptr %32, align 4, !tbaa !30
  br label %38, !llvm.loop !176

65:                                               ; preds = %38
  store i32 0, ptr %32, align 4, !tbaa !30
  br label %66

66:                                               ; preds = %109, %65
  %67 = load i32, ptr %32, align 4, !tbaa !30
  %68 = load i32, ptr %21, align 4, !tbaa !30
  %69 = icmp slt i32 %67, %68
  br i1 %69, label %70, label %112

70:                                               ; preds = %66
  %71 = load ptr, ptr %19, align 8, !tbaa !47
  %72 = load i32, ptr %32, align 4, !tbaa !30
  %73 = sext i32 %72 to i64
  %74 = getelementptr inbounds ptr, ptr %71, i64 %73
  %75 = load ptr, ptr %74, align 8, !tbaa !45
  %76 = load i32, ptr %27, align 4, !tbaa !30
  %77 = sext i32 %76 to i64
  %78 = getelementptr inbounds i16, ptr %75, i64 %77
  %79 = load i16, ptr %78, align 2, !tbaa !49
  %80 = sext i16 %79 to i32
  %81 = load ptr, ptr %18, align 8, !tbaa !45
  %82 = load i32, ptr %32, align 4, !tbaa !30
  %83 = sext i32 %82 to i64
  %84 = getelementptr inbounds i16, ptr %81, i64 %83
  %85 = load i16, ptr %84, align 2, !tbaa !49
  %86 = sext i16 %85 to i32
  %87 = mul nsw i32 %80, %86
  %88 = load i32, ptr %29, align 4, !tbaa !30
  %89 = add nsw i32 %88, %87
  store i32 %89, ptr %29, align 4, !tbaa !30
  %90 = load ptr, ptr %20, align 8, !tbaa !47
  %91 = load i32, ptr %32, align 4, !tbaa !30
  %92 = sext i32 %91 to i64
  %93 = getelementptr inbounds ptr, ptr %90, i64 %92
  %94 = load ptr, ptr %93, align 8, !tbaa !45
  %95 = load i32, ptr %27, align 4, !tbaa !30
  %96 = sext i32 %95 to i64
  %97 = getelementptr inbounds i16, ptr %94, i64 %96
  %98 = load i16, ptr %97, align 2, !tbaa !49
  %99 = sext i16 %98 to i32
  %100 = load ptr, ptr %18, align 8, !tbaa !45
  %101 = load i32, ptr %32, align 4, !tbaa !30
  %102 = sext i32 %101 to i64
  %103 = getelementptr inbounds i16, ptr %100, i64 %102
  %104 = load i16, ptr %103, align 2, !tbaa !49
  %105 = sext i16 %104 to i32
  %106 = mul nsw i32 %99, %105
  %107 = load i32, ptr %30, align 4, !tbaa !30
  %108 = add nsw i32 %107, %106
  store i32 %108, ptr %30, align 4, !tbaa !30
  br label %109

109:                                              ; preds = %70
  %110 = load i32, ptr %32, align 4, !tbaa !30
  %111 = add nsw i32 %110, 1
  store i32 %111, ptr %32, align 4, !tbaa !30
  br label %66, !llvm.loop !177

112:                                              ; preds = %66
  %113 = load i32, ptr %28, align 4, !tbaa !30
  %114 = ashr i32 %113, 17
  %115 = call i32 @av_clip_uintp2_c(i32 noundef %114, i32 noundef 10) #10
  store i32 %115, ptr %28, align 4, !tbaa !30
  %116 = load i32, ptr %29, align 4, !tbaa !30
  %117 = ashr i32 %116, 17
  %118 = call i32 @av_clip_uintp2_c(i32 noundef %117, i32 noundef 10) #10
  store i32 %118, ptr %29, align 4, !tbaa !30
  %119 = load i32, ptr %30, align 4, !tbaa !30
  %120 = ashr i32 %119, 17
  %121 = call i32 @av_clip_uintp2_c(i32 noundef %120, i32 noundef 10) #10
  store i32 %121, ptr %30, align 4, !tbaa !30
  %122 = load i32, ptr %29, align 4, !tbaa !30
  %123 = load i32, ptr %26, align 4, !tbaa !30
  %124 = add nsw i32 %123, 0
  %125 = shl i32 %122, %124
  %126 = load i32, ptr %28, align 4, !tbaa !30
  %127 = load i32, ptr %26, align 4, !tbaa !30
  %128 = add nsw i32 %127, 10
  %129 = shl i32 %126, %128
  %130 = or i32 %125, %129
  %131 = load i32, ptr %30, align 4, !tbaa !30
  %132 = load i32, ptr %26, align 4, !tbaa !30
  %133 = add nsw i32 %132, 20
  %134 = shl i32 %131, %133
  %135 = or i32 %130, %134
  %136 = load i32, ptr %31, align 4, !tbaa !30
  %137 = load i32, ptr %26, align 4, !tbaa !30
  %138 = icmp ne i32 %137, 0
  %139 = select i1 %138, i32 0, i32 30
  %140 = shl i32 %136, %139
  %141 = or i32 %135, %140
  %142 = load ptr, ptr %23, align 8, !tbaa !46
  %143 = load i32, ptr %27, align 4, !tbaa !30
  %144 = mul nsw i32 4, %143
  %145 = sext i32 %144 to i64
  %146 = getelementptr inbounds i8, ptr %142, i64 %145
  store i32 %141, ptr %146, align 1, !tbaa !51
  call void @llvm.lifetime.end.p0(i64 4, ptr %32) #8
  call void @llvm.lifetime.end.p0(i64 4, ptr %31) #8
  call void @llvm.lifetime.end.p0(i64 4, ptr %30) #8
  call void @llvm.lifetime.end.p0(i64 4, ptr %29) #8
  call void @llvm.lifetime.end.p0(i64 4, ptr %28) #8
  br label %147

147:                                              ; preds = %112
  %148 = load i32, ptr %27, align 4, !tbaa !30
  %149 = add nsw i32 %148, 1
  store i32 %149, ptr %27, align 4, !tbaa !30
  br label %33, !llvm.loop !178

150:                                              ; preds = %33
  call void @llvm.lifetime.end.p0(i64 4, ptr %27) #8
  ret void
}

; Function Attrs: nounwind uwtable
define internal void @yuv2xv30le_X_c(ptr noundef %0, ptr noundef %1, ptr noundef %2, i32 noundef %3, ptr noundef %4, ptr noundef %5, ptr noundef %6, i32 noundef %7, ptr noundef %8, ptr noundef %9, i32 noundef %10, i32 noundef %11) #4 {
  %13 = alloca ptr, align 8
  %14 = alloca ptr, align 8
  %15 = alloca ptr, align 8
  %16 = alloca i32, align 4
  %17 = alloca ptr, align 8
  %18 = alloca ptr, align 8
  %19 = alloca ptr, align 8
  %20 = alloca i32, align 4
  %21 = alloca ptr, align 8
  %22 = alloca ptr, align 8
  %23 = alloca i32, align 4
  %24 = alloca i32, align 4
  store ptr %0, ptr %13, align 8, !tbaa !4
  store ptr %1, ptr %14, align 8, !tbaa !45
  store ptr %2, ptr %15, align 8, !tbaa !47
  store i32 %3, ptr %16, align 4, !tbaa !30
  store ptr %4, ptr %17, align 8, !tbaa !45
  store ptr %5, ptr %18, align 8, !tbaa !47
  store ptr %6, ptr %19, align 8, !tbaa !47
  store i32 %7, ptr %20, align 4, !tbaa !30
  store ptr %8, ptr %21, align 8, !tbaa !47
  store ptr %9, ptr %22, align 8, !tbaa !46
  store i32 %10, ptr %23, align 4, !tbaa !30
  store i32 %11, ptr %24, align 4, !tbaa !30
  %25 = load ptr, ptr %13, align 8, !tbaa !4
  %26 = load ptr, ptr %14, align 8, !tbaa !45
  %27 = load ptr, ptr %15, align 8, !tbaa !47
  %28 = load i32, ptr %16, align 4, !tbaa !30
  %29 = load ptr, ptr %17, align 8, !tbaa !45
  %30 = load ptr, ptr %18, align 8, !tbaa !47
  %31 = load ptr, ptr %19, align 8, !tbaa !47
  %32 = load i32, ptr %20, align 4, !tbaa !30
  %33 = load ptr, ptr %21, align 8, !tbaa !47
  %34 = load ptr, ptr %22, align 8, !tbaa !46
  %35 = load i32, ptr %23, align 4, !tbaa !30
  %36 = load i32, ptr %24, align 4, !tbaa !30
  call void @yuv2v30_X_c_template(ptr noundef %25, ptr noundef %26, ptr noundef %27, i32 noundef %28, ptr noundef %29, ptr noundef %30, ptr noundef %31, i32 noundef %32, ptr noundef %33, ptr noundef %34, i32 noundef %35, i32 noundef %36, i32 noundef 0)
  ret void
}