; Function Attrs: nofree norecurse nosync nounwind memory(read, argmem: readwrite, inaccessiblemem: none) uwtable
define internal void @yuv2xv30le_X_c(ptr readnone captures(none) %0, ptr noundef readonly captures(none) %1, ptr noundef readonly captures(none) %2, i32 noundef %3, ptr noundef readonly captures(none) %4, ptr noundef readonly captures(none) %5, ptr noundef readonly captures(none) %6, i32 noundef %7, ptr readnone captures(none) %8, ptr noundef writeonly captures(none) %9, i32 noundef %10, i32 %11) #3 {
  %13 = icmp sgt i32 %10, 0
  br i1 %13, label %.preheader11.lr.ph, label %yuv2v30_X_c_template.exit

.preheader11.lr.ph:                               ; preds = %12
  %14 = icmp sgt i32 %3, 0
  %15 = icmp sgt i32 %7, 0
  %wide.trip.count73 = zext nneg i32 %10 to i64
  br i1 %15, label %.preheader11.lr.ph.split.us, label %.preheader11.lr.ph.split

.preheader11.lr.ph.split.us:                      ; preds = %.preheader11.lr.ph
  br i1 %14, label %.preheader11.us.us.preheader, label %.preheader11.us.preheader

.preheader11.us.preheader:                        ; preds = %.preheader11.lr.ph.split.us
  %wide.trip.count53 = zext nneg i32 %7 to i64
  br label %.preheader11.us

.preheader11.us.us.preheader:                     ; preds = %.preheader11.lr.ph.split.us
  %wide.trip.count63 = zext nneg i32 %3 to i64
  %wide.trip.count68 = zext nneg i32 %7 to i64
  br label %.preheader11.us.us

.preheader11.us.us:                               ; preds = %.preheader11.us.us.preheader, %._crit_edge.us.us
  %indvars.iv70 = phi i64 [ 0, %.preheader11.us.us.preheader ], [ %indvars.iv.next71, %._crit_edge.us.us ]
  br label %33

..preheader_crit_edge.us.us:                      ; preds = %33, %..preheader_crit_edge.us.us
  %indvars.iv65 = phi i64 [ %indvars.iv.next66, %..preheader_crit_edge.us.us ], [ 0, %33 ]
  %.040.i15.us.us = phi i32 [ %32, %..preheader_crit_edge.us.us ], [ 65536, %33 ]
  %.041.i14.us.us = phi i32 [ %25, %..preheader_crit_edge.us.us ], [ 65536, %33 ]
  %16 = getelementptr inbounds nuw ptr, ptr %5, i64 %indvars.iv65
  %17 = load ptr, ptr %16, align 8, !tbaa !43
  %18 = getelementptr inbounds nuw i16, ptr %17, i64 %indvars.iv70
  %19 = load i16, ptr %18, align 2, !tbaa !39
  %20 = sext i16 %19 to i32
  %21 = getelementptr inbounds nuw i16, ptr %4, i64 %indvars.iv65
  %22 = load i16, ptr %21, align 2, !tbaa !39
  %23 = sext i16 %22 to i32
  %24 = mul nsw i32 %23, %20
  %25 = add nsw i32 %24, %.041.i14.us.us
  %26 = getelementptr inbounds nuw ptr, ptr %6, i64 %indvars.iv65
  %27 = load ptr, ptr %26, align 8, !tbaa !43
  %28 = getelementptr inbounds nuw i16, ptr %27, i64 %indvars.iv70
  %29 = load i16, ptr %28, align 2, !tbaa !39
  %30 = sext i16 %29 to i32
  %31 = mul nsw i32 %30, %23
  %32 = add nsw i32 %31, %.040.i15.us.us
  %indvars.iv.next66 = add nuw nsw i64 %indvars.iv65, 1
  %exitcond69.not = icmp eq i64 %indvars.iv.next66, %wide.trip.count68
  br i1 %exitcond69.not, label %._crit_edge.us.us, label %..preheader_crit_edge.us.us, !llvm.loop !154

33:                                               ; preds = %.preheader11.us.us, %33
  %indvars.iv60 = phi i64 [ 0, %.preheader11.us.us ], [ %indvars.iv.next61, %33 ]
  %.042.i12.us.us = phi i32 [ 65536, %.preheader11.us.us ], [ %43, %33 ]
  %34 = getelementptr inbounds nuw ptr, ptr %2, i64 %indvars.iv60
  %35 = load ptr, ptr %34, align 8, !tbaa !43
  %36 = getelementptr inbounds nuw i16, ptr %35, i64 %indvars.iv70
  %37 = load i16, ptr %36, align 2, !tbaa !39
  %38 = sext i16 %37 to i32
  %39 = getelementptr inbounds nuw i16, ptr %1, i64 %indvars.iv60
  %40 = load i16, ptr %39, align 2, !tbaa !39
  %41 = sext i16 %40 to i32
  %42 = mul nsw i32 %41, %38
  %43 = add nsw i32 %42, %.042.i12.us.us
  %indvars.iv.next61 = add nuw nsw i64 %indvars.iv60, 1
  %exitcond64.not = icmp eq i64 %indvars.iv.next61, %wide.trip.count63
  br i1 %exitcond64.not, label %..preheader_crit_edge.us.us, label %33, !llvm.loop !155

._crit_edge.us.us:                                ; preds = %..preheader_crit_edge.us.us
  %44 = ashr i32 %43, 17
  %45 = tail call i32 @llvm.smax.i32(i32 %44, i32 0)
  %46 = tail call i32 @llvm.umin.i32(i32 %45, i32 1023)
  %47 = ashr i32 %25, 17
  %48 = tail call i32 @llvm.smax.i32(i32 %47, i32 0)
  %49 = tail call i32 @llvm.umin.i32(i32 %48, i32 1023)
  %50 = ashr i32 %32, 17
  %51 = tail call i32 @llvm.smax.i32(i32 %50, i32 0)
  %52 = tail call i32 @llvm.umin.i32(i32 %51, i32 1023)
  %53 = shl nuw nsw i32 %46, 10
  %54 = or disjoint i32 %49, %53
  %55 = shl nuw nsw i32 %52, 20
  %56 = or disjoint i32 %55, %54
  %57 = or disjoint i32 %56, -1073741824
  %58 = shl nsw i64 %indvars.iv70, 2
  %59 = getelementptr inbounds nuw i8, ptr %9, i64 %58
  store i32 %57, ptr %59, align 1, !tbaa !41
  %indvars.iv.next71 = add nuw nsw i64 %indvars.iv70, 1
  %exitcond74.not = icmp eq i64 %indvars.iv.next71, %wide.trip.count73
  br i1 %exitcond74.not, label %yuv2v30_X_c_template.exit, label %.preheader11.us.us, !llvm.loop !156

.preheader11.us:                                  ; preds = %.preheader11.us.preheader, %._crit_edge.us
  %indvars.iv55 = phi i64 [ 0, %.preheader11.us.preheader ], [ %indvars.iv.next56, %._crit_edge.us ]
  br label %60

60:                                               ; preds = %.preheader11.us, %60
  %indvars.iv50 = phi i64 [ 0, %.preheader11.us ], [ %indvars.iv.next51, %60 ]
  %.040.i15.us = phi i32 [ 65536, %.preheader11.us ], [ %77, %60 ]
  %.041.i14.us = phi i32 [ 65536, %.preheader11.us ], [ %70, %60 ]
  %61 = getelementptr inbounds nuw ptr, ptr %5, i64 %indvars.iv50
  %62 = load ptr, ptr %61, align 8, !tbaa !43
  %63 = getelementptr inbounds nuw i16, ptr %62, i64 %indvars.iv55
  %64 = load i16, ptr %63, align 2, !tbaa !39
  %65 = sext i16 %64 to i32
  %66 = getelementptr inbounds nuw i16, ptr %4, i64 %indvars.iv50
  %67 = load i16, ptr %66, align 2, !tbaa !39
  %68 = sext i16 %67 to i32
  %69 = mul nsw i32 %68, %65
  %70 = add nsw i32 %69, %.041.i14.us
  %71 = getelementptr inbounds nuw ptr, ptr %6, i64 %indvars.iv50
  %72 = load ptr, ptr %71, align 8, !tbaa !43
  %73 = getelementptr inbounds nuw i16, ptr %72, i64 %indvars.iv55
  %74 = load i16, ptr %73, align 2, !tbaa !39
  %75 = sext i16 %74 to i32
  %76 = mul nsw i32 %75, %68
  %77 = add nsw i32 %76, %.040.i15.us
  %indvars.iv.next51 = add nuw nsw i64 %indvars.iv50, 1
  %exitcond54.not = icmp eq i64 %indvars.iv.next51, %wide.trip.count53
  br i1 %exitcond54.not, label %._crit_edge.us, label %60, !llvm.loop !154

._crit_edge.us:                                   ; preds = %60
  %78 = ashr i32 %70, 17
  %79 = tail call i32 @llvm.smax.i32(i32 %78, i32 0)
  %80 = tail call i32 @llvm.umin.i32(i32 %79, i32 1023)
  %81 = ashr i32 %77, 17
  %82 = tail call i32 @llvm.smax.i32(i32 %81, i32 0)
  %83 = tail call i32 @llvm.umin.i32(i32 %82, i32 1023)
  %84 = shl nuw nsw i32 %83, 20
  %85 = or disjoint i32 %84, %80
  %86 = or disjoint i32 %85, -1073741824
  %87 = shl nsw i64 %indvars.iv55, 2
  %88 = getelementptr inbounds nuw i8, ptr %9, i64 %87
  store i32 %86, ptr %88, align 1, !tbaa !41
  %indvars.iv.next56 = add nuw nsw i64 %indvars.iv55, 1
  %exitcond59.not = icmp eq i64 %indvars.iv.next56, %wide.trip.count73
  br i1 %exitcond59.not, label %yuv2v30_X_c_template.exit, label %.preheader11.us, !llvm.loop !156

.preheader11.lr.ph.split:                         ; preds = %.preheader11.lr.ph
  br i1 %14, label %.preheader11.us21.preheader, label %.preheader11

.preheader11.us21.preheader:                      ; preds = %.preheader11.lr.ph.split
  %wide.trip.count43 = zext nneg i32 %3 to i64
  br label %.preheader11.us21

.preheader11.us21:                                ; preds = %.preheader11.us21.preheader, %..preheader_crit_edge.us29
  %indvars.iv45 = phi i64 [ 0, %.preheader11.us21.preheader ], [ %indvars.iv.next46, %..preheader_crit_edge.us29 ]
  br label %89

89:                                               ; preds = %.preheader11.us21, %89
  %indvars.iv40 = phi i64 [ 0, %.preheader11.us21 ], [ %indvars.iv.next41, %89 ]
  %.042.i12.us24 = phi i32 [ 65536, %.preheader11.us21 ], [ %99, %89 ]
  %90 = getelementptr inbounds nuw ptr, ptr %2, i64 %indvars.iv40
  %91 = load ptr, ptr %90, align 8, !tbaa !43
  %92 = getelementptr inbounds nuw i16, ptr %91, i64 %indvars.iv45
  %93 = load i16, ptr %92, align 2, !tbaa !39
  %94 = sext i16 %93 to i32
  %95 = getelementptr inbounds nuw i16, ptr %1, i64 %indvars.iv40
  %96 = load i16, ptr %95, align 2, !tbaa !39
  %97 = sext i16 %96 to i32
  %98 = mul nsw i32 %97, %94
  %99 = add nsw i32 %98, %.042.i12.us24
  %indvars.iv.next41 = add nuw nsw i64 %indvars.iv40, 1
  %exitcond44.not = icmp eq i64 %indvars.iv.next41, %wide.trip.count43
  br i1 %exitcond44.not, label %..preheader_crit_edge.us29, label %89, !llvm.loop !155

..preheader_crit_edge.us29:                       ; preds = %89
  %100 = ashr i32 %99, 17
  %101 = tail call i32 @llvm.smax.i32(i32 %100, i32 0)
  %102 = tail call i32 @llvm.umin.i32(i32 %101, i32 1023)
  %103 = shl nuw nsw i32 %102, 10
  %104 = or disjoint i32 %103, -1073741824
  %105 = shl nsw i64 %indvars.iv45, 2
  %106 = getelementptr inbounds nuw i8, ptr %9, i64 %105
  store i32 %104, ptr %106, align 1, !tbaa !41
  %indvars.iv.next46 = add nuw nsw i64 %indvars.iv45, 1
  %exitcond49.not = icmp eq i64 %indvars.iv.next46, %wide.trip.count73
  br i1 %exitcond49.not, label %yuv2v30_X_c_template.exit, label %.preheader11.us21, !llvm.loop !156

.preheader11:                                     ; preds = %.preheader11.lr.ph.split, %.preheader11
  %indvars.iv = phi i64 [ %indvars.iv.next, %.preheader11 ], [ 0, %.preheader11.lr.ph.split ]
  %107 = shl nsw i64 %indvars.iv, 2
  %108 = getelementptr inbounds nuw i8, ptr %9, i64 %107
  store i32 -1073741824, ptr %108, align 1, !tbaa !41
  %indvars.iv.next = add nuw nsw i64 %indvars.iv, 1
  %exitcond.not = icmp eq i64 %indvars.iv.next, %wide.trip.count73
  br i1 %exitcond.not, label %yuv2v30_X_c_template.exit, label %.preheader11, !llvm.loop !156

yuv2v30_X_c_template.exit:                        ; preds = %.preheader11, %..preheader_crit_edge.us29, %._crit_edge.us, %._crit_edge.us.us, %12
  ret void
}